target datalayout = "e-m:e-p270:32:32-p271:32:32-p272:64:64-i64:64-i128:128-f80:128-n8:16:32:64-S128"
target triple = "x86_64-pc-linux-gnu"

@stderr = external global ptr, align 8
@.str.15 = private unnamed_addr constant [13 x i8] c"  File = %s\0A\00", align 1
@.str.16 = private unnamed_addr constant [27 x i8] c"Unable to allocate buffer\0A\00", align 1
@.str.17 = private unnamed_addr constant [3 x i8] c"rb\00", align 1
@.str.18 = private unnamed_addr constant [24 x i8] c"Unable to open %s (%s)\0A\00", align 1
@.str.19 = private unnamed_addr constant [21 x i8] c"Unable to read file\0A\00", align 1
@.str.20 = private unnamed_addr constant [19 x i8] c"    Read %d bytes\0A\00", align 1

; Function Attrs: nounwind uwtable
define internal i32 @get_file_buffer(ptr noundef %0, ptr noundef %1, i32 noundef %2) #0 {
  %4 = alloca i32, align 4
  %5 = alloca ptr, align 8
  %6 = alloca ptr, align 8
  %7 = alloca i32, align 4
  %8 = alloca ptr, align 8
  %9 = alloca i32, align 4
  store ptr %0, ptr %5, align 8, !tbaa !4
  store ptr %1, ptr %6, align 8, !tbaa !4
  store i32 %2, ptr %7, align 4, !tbaa !16
  call void @llvm.lifetime.start.p0(i64 8, ptr %8) #7
  %10 = load ptr, ptr %5, align 8, !tbaa !4
  %11 = call i32 (ptr, ...) @printf(ptr noundef @.str.15, ptr noundef %10)
  %12 = load ptr, ptr %6, align 8, !tbaa !4
  %13 = icmp ne ptr %12, null
  br i1 %13, label %17, label %14

14:                                               ; preds = %3
  %15 = load ptr, ptr @stderr, align 8, !tbaa !12
  %16 = call i32 (ptr, ptr, ...) @fprintf(ptr noundef %15, ptr noundef @.str.16) #7
  store i32 0, ptr %4, align 4
  store i32 1, ptr %9, align 4
  br label %49

17:                                               ; preds = %3
  %18 = load ptr, ptr %5, align 8, !tbaa !4
  %19 = call noalias ptr @fopen(ptr noundef %18, ptr noundef @.str.17)
  store ptr %19, ptr %8, align 8, !tbaa !12
  %20 = load ptr, ptr %8, align 8, !tbaa !12
  %21 = icmp ne ptr %20, null
  br i1 %21, label %29, label %22

22:                                               ; preds = %17
  %23 = load ptr, ptr @stderr, align 8, !tbaa !12
  %24 = load ptr, ptr %5, align 8, !tbaa !4
  %25 = call ptr @__errno_location() #9
  %26 = load i32, ptr %25, align 4, !tbaa !16
  %27 = call ptr @strerror(i32 noundef %26) #7
  %28 = call i32 (ptr, ptr, ...) @fprintf(ptr noundef %23, ptr noundef @.str.18, ptr noundef %24, ptr noundef %27) #7
  store i32 0, ptr %4, align 4
  store i32 1, ptr %9, align 4
  br label %49

29:                                               ; preds = %17
  %30 = load ptr, ptr %6, align 8, !tbaa !4
  %31 = load i32, ptr %7, align 4, !tbaa !16
  %32 = sext i32 %31 to i64
  %33 = load ptr, ptr %8, align 8, !tbaa !12
  %34 = call i64 @fread(ptr noundef %30, i64 noundef 1, i64 noundef %32, ptr noundef %33)
  %35 = trunc i64 %34 to i32
  store i32 %35, ptr %7, align 4, !tbaa !16
  %36 = load i32, ptr %7, align 4, !tbaa !16
  %37 = icmp eq i32 %36, 0
  br i1 %37, label %38, label %43

38:                                               ; preds = %29
  %39 = load ptr, ptr @stderr, align 8, !tbaa !12
  %40 = call i32 (ptr, ptr, ...) @fprintf(ptr noundef %39, ptr noundef @.str.19) #7
  %41 = load ptr, ptr %8, align 8, !tbaa !12
  %42 = call i32 @fclose(ptr noundef %41)
  store i32 0, ptr %4, align 4
  store i32 1, ptr %9, align 4
  br label %49

43:                                               ; preds = %29
  %44 = load i32, ptr %7, align 4, !tbaa !16
  %45 = call i32 (ptr, ...) @printf(ptr noundef @.str.20, i32 noundef %44)
  %46 = load ptr, ptr %8, align 8, !tbaa !12
  %47 = call i32 @fclose(ptr noundef %46)
  %48 = load i32, ptr %7, align 4, !tbaa !16
  store i32 %48, ptr %4, align 4
  store i32 1, ptr %9, align 4
  br label %49

49:                                               ; preds = %43, %38, %22, %14
  call void @llvm.lifetime.end.p0(i64 8, ptr %8) #7
  %50 = load i32, ptr %4, align 4
  ret i32 %50
}