; Function Attrs: nounwind uwtable
define internal fastcc noundef i32 @get_file_buffer(ptr noundef nonnull %0, ptr noundef nonnull captures(none) %1) unnamed_addr #0 {
  %3 = tail call i32 (ptr, ...) @printf(ptr noundef nonnull dereferenceable(1) @.str.15, ptr noundef nonnull %0)
  %4 = tail call noalias ptr @fopen(ptr noundef nonnull %0, ptr noundef nonnull @.str.17)
  %.not = icmp eq ptr %4, null
  br i1 %.not, label %5, label %11

5:                                                ; preds = %2
  %6 = load ptr, ptr @stderr, align 8, !tbaa !7
  %7 = tail call ptr @__errno_location() #15
  %8 = load i32, ptr %7, align 4, !tbaa !21
  %9 = tail call ptr @strerror(i32 noundef %8) #11
  %10 = tail call i32 (ptr, ptr, ...) @fprintf(ptr noundef %6, ptr noundef nonnull @.str.18, ptr noundef nonnull %0, ptr noundef %9) #12
  br label %22

11:                                               ; preds = %2
  %12 = tail call i64 @fread(ptr noundef nonnull %1, i64 noundef 1, i64 noundef 4096, ptr noundef nonnull %4)
  %13 = trunc i64 %12 to i32
  %14 = icmp eq i32 %13, 0
  br i1 %14, label %15, label %19

15:                                               ; preds = %11
  %16 = load ptr, ptr @stderr, align 8, !tbaa !7
  %17 = tail call i64 @fwrite(ptr nonnull @.str.19, i64 20, i64 1, ptr %16) #13
  %18 = tail call i32 @fclose(ptr noundef nonnull %4)
  br label %22

19:                                               ; preds = %11
  %20 = tail call i32 (ptr, ...) @printf(ptr noundef nonnull dereferenceable(1) @.str.20, i32 noundef %13)
  %21 = tail call i32 @fclose(ptr noundef nonnull %4)
  br label %22

22:                                               ; preds = %19, %15, %5
  %.0 = phi i32 [ 0, %15 ], [ %13, %19 ], [ 0, %5 ]
  ret i32 %.0
}